(lp0
ccopy_reg
_reconstructor
p1
(c__main__
Person
p2
c__builtin__
object
p3
Ntp4
Rp5
(dp6
S'last'
p7
S'Booth'
p8
sS'url'
p9
S'boothweb.com'
p10
sS'search_name'
p11
S'KYLE'
p12
sS'phone'
p13
S'4040003392'
p14
sS'email'
p15
S'kjbooth1000@yahoo.com'
p16
sS'first'
p17
S'Kyle'
p18
sbag1
(g2
g3
Ntp19
Rp20
(dp21
g7
S'Loo'
p22
sg9
S'jimmyloo@netzero.com'
p23
sg11
S'JIMMY'
p24
sg13
S'212-479-5999'
p25
sg15
S'jloo@altavista.net'
p26
sg17
S'Jimmy'
p27
sba.