(lp0
ccopy_reg
_reconstructor
p1
(c__main__
Person
p2
c__builtin__
object
p3
Ntp4
Rp5
(dp6
S'phone'
p7
S'kwjefw'
p8
sS'last'
p9
S'dkhwdhw'
p10
sS'email'
p11
S'wejfhwekj'
p12
sS'first'
p13
S'Rachel'
p14
sbag1
(g2
g3
Ntp15
Rp16
(dp17
g7
S'5529984482'
p18
sg9
S'Booth'
p19
sg11
S'kbooth21000@weee.com'
p20
sg13
S'Lena'
p21
sbag1
(g2
g3
Ntp22
Rp23
(dp24
g7
S'9298387474'
p25
sg9
S'Jones'
p26
sg11
S'soccer@futbol.com'
p27
sg13
S'Kirby'
p28
sbag1
(g2
g3
Ntp29
Rp30
(dp31
g7
S'9490302888'
p32
sg9
S'Lawwwlez'
p33
sg11
S'laaa@less.com'
p34
sg13
S'Alexi'
p35
sba.